; Function Attrs: nounwind uwtable
define internal void @srt_style_cb(ptr noundef %0, i8 noundef signext %1, i32 noundef %2) #1 {
  %.not.i = icmp eq i32 %2, 0
  br i1 %.not.i, label %34, label %4

4:                                                ; preds = %3
  %.not11.i = icmp eq i8 %1, 0
  %.phi.trans.insert = getelementptr inbounds nuw i8, ptr %0, i64 1104
  %.pre = load i32, ptr %.phi.trans.insert, align 8, !tbaa !58
  br i1 %.not11.i, label %.preheader.i, label %5

5:                                                ; preds = %4
  %6 = getelementptr inbounds nuw i8, ptr %0, i64 1040
  %7 = zext i32 %.pre to i64
  %smin.i.i = tail call i32 @llvm.smin.i32(i32 %.pre, i32 0)
  %8 = add i32 %smin.i.i, -1
  br label %9

9:                                                ; preds = %12, %5
  %indvars.iv.i.i = phi i64 [ %indvars.iv.next.i.i, %12 ], [ %7, %5 ]
  %10 = trunc nuw i64 %indvars.iv.i.i to i32
  %11 = icmp sgt i32 %10, 0
  br i1 %11, label %12, label %srt_stack_find.exit.i

12:                                               ; preds = %9
  %indvars.iv.next.i.i = add nsw i64 %indvars.iv.i.i, -1
  %13 = and i64 %indvars.iv.next.i.i, 4294967295
  %14 = getelementptr inbounds nuw [64 x i8], ptr %6, i64 0, i64 %13
  %15 = load i8, ptr %14, align 1, !tbaa !59
  %16 = icmp eq i8 %15, %1
  br i1 %16, label %.split.loop.exit.i.i, label %9, !llvm.loop !64

.split.loop.exit.i.i:                             ; preds = %12
  %indvars.le.i.i = trunc i64 %indvars.iv.next.i.i to i32
  br label %srt_stack_find.exit.i

srt_stack_find.exit.i:                            ; preds = %9, %.split.loop.exit.i.i
  %17 = phi i32 [ %indvars.le.i.i, %.split.loop.exit.i.i ], [ %8, %9 ]
  %18 = icmp slt i32 %17, 0
  br i1 %18, label %srt_stack_push_pop.exit, label %.preheader.i

.preheader.i:                                     ; preds = %4, %srt_stack_find.exit.i
  %19 = phi i32 [ %17, %srt_stack_find.exit.i ], [ 0, %4 ]
  %20 = getelementptr inbounds nuw i8, ptr %0, i64 1104
  %.not1217.i = icmp eq i32 %.pre, %19
  br i1 %.not1217.i, label %srt_stack_push_pop.exit, label %.lr.ph.i

.lr.ph.i:                                         ; preds = %.preheader.i
  %21 = getelementptr inbounds nuw i8, ptr %0, i64 1040
  br label %22

22:                                               ; preds = %srt_stack_pop.exit.thread.i, %.lr.ph.i
  %23 = phi i32 [ %.pre, %.lr.ph.i ], [ %33, %srt_stack_pop.exit.thread.i ]
  %24 = icmp slt i32 %23, 1
  br i1 %24, label %srt_stack_pop.exit.thread.i, label %srt_stack_pop.exit.i

srt_stack_pop.exit.i:                             ; preds = %22
  %25 = add nsw i32 %23, -1
  store i32 %25, ptr %20, align 8, !tbaa !58
  %26 = zext nneg i32 %25 to i64
  %27 = getelementptr inbounds nuw [64 x i8], ptr %21, i64 0, i64 %26
  %28 = load i8, ptr %27, align 1, !tbaa !59
  %.fr.i = freeze i8 %28
  %29 = sext i8 %.fr.i to i32
  %30 = icmp eq i8 %.fr.i, 102
  %spec.select.i = select i1 %30, ptr @.str.21, ptr @.str.22
  br label %srt_stack_pop.exit.thread.i

srt_stack_pop.exit.thread.i:                      ; preds = %srt_stack_pop.exit.i, %22
  %31 = phi i32 [ 0, %22 ], [ %29, %srt_stack_pop.exit.i ]
  %32 = phi ptr [ @.str.22, %22 ], [ %spec.select.i, %srt_stack_pop.exit.i ]
  tail call void (ptr, ptr, ...) @srt_print(ptr noundef nonnull %0, ptr noundef nonnull @.str.20, i32 noundef %31, ptr noundef nonnull %32)
  %33 = load i32, ptr %20, align 8, !tbaa !58
  %.not12.i = icmp eq i32 %33, %19
  br i1 %.not12.i, label %srt_stack_push_pop.exit, label %22, !llvm.loop !65

34:                                               ; preds = %3
  %35 = getelementptr inbounds nuw i8, ptr %0, i64 1104
  %36 = load i32, ptr %35, align 8, !tbaa !58
  %37 = icmp sgt i32 %36, 63
  br i1 %37, label %42, label %srt_stack_push.exit.i

srt_stack_push.exit.i:                            ; preds = %34
  %38 = getelementptr inbounds nuw i8, ptr %0, i64 1040
  %39 = add nsw i32 %36, 1
  store i32 %39, ptr %35, align 8, !tbaa !58
  %40 = sext i32 %36 to i64
  %41 = getelementptr inbounds [64 x i8], ptr %38, i64 0, i64 %40
  store i8 %1, ptr %41, align 1, !tbaa !59
  br label %srt_stack_push_pop.exit.thread

42:                                               ; preds = %34
  %43 = load ptr, ptr %0, align 8, !tbaa !27
  tail call void (ptr, i32, ptr, ...) @av_log(ptr noundef %43, i32 noundef 16, ptr noundef nonnull @.str.19) #8
  br label %srt_stack_push_pop.exit.thread

srt_stack_push_pop.exit.thread:                   ; preds = %42, %srt_stack_push.exit.i
  %44 = sext i8 %1 to i32
  tail call void (ptr, ptr, ...) @srt_print(ptr noundef nonnull %0, ptr noundef nonnull @.str.18, i32 noundef %44)
  br label %srt_stack_push_pop.exit

srt_stack_push_pop.exit:                          ; preds = %srt_stack_pop.exit.thread.i, %.preheader.i, %srt_stack_find.exit.i, %srt_stack_push_pop.exit.thread
  ret void
}